; Function Attrs: mustprogress uwtable
define hidden void @_ZN5array6solver8pop_coreEj(ptr noundef nonnull align 8 dereferenceable(536) %0, i32 noundef %1) unnamed_addr #3 align 2 {
  tail call void @_ZN3euf13th_euf_solver8pop_coreEj(ptr noundef nonnull align 8 dereferenceable(108) %0, i32 noundef %1)
  %3 = getelementptr inbounds nuw i8, ptr %0, i64 184
  %4 = getelementptr inbounds nuw i8, ptr %0, i64 88
  %5 = load ptr, ptr %4, align 8, !tbaa !135
  %6 = icmp eq ptr %5, null
  br i1 %6, label %_ZNK3euf13th_euf_solver12get_num_varsEv.exit, label %7

7:                                                ; preds = %2
  %8 = getelementptr inbounds i8, ptr %5, i64 -4
  %9 = load i32, ptr %8, align 4, !tbaa !140
  br label %_ZNK3euf13th_euf_solver12get_num_varsEv.exit

_ZNK3euf13th_euf_solver12get_num_varsEv.exit:     ; preds = %2, %7
  %.0.i.i = phi i32 [ %9, %7 ], [ 0, %2 ]
  %10 = load ptr, ptr %3, align 8, !tbaa !155
  %11 = icmp eq ptr %10, null
  br i1 %11, label %_ZNK6vectorIPN5array6solver8var_dataELb0EjE4sizeEv.exit13.i, label %_ZNK6vectorIPN5array6solver8var_dataELb0EjE4sizeEv.exit.i

_ZNK6vectorIPN5array6solver8var_dataELb0EjE4sizeEv.exit.i: ; preds = %_ZNK3euf13th_euf_solver12get_num_varsEv.exit
  %12 = getelementptr inbounds i8, ptr %10, i64 -4
  %13 = load i32, ptr %12, align 4, !tbaa !140
  %14 = icmp ult i32 %.0.i.i, %13
  br i1 %14, label %.lr.ph.preheader.i, label %_ZNK6vectorIPN5array6solver8var_dataELb0EjE4sizeEv.exit13.i

.lr.ph.preheader.i:                               ; preds = %_ZNK6vectorIPN5array6solver8var_dataELb0EjE4sizeEv.exit.i
  %15 = zext i32 %13 to i64
  %16 = zext i32 %.0.i.i to i64
  br label %.lr.ph.i

._crit_edge.i:                                    ; preds = %.lr.ph.i
  %.pre.i = load ptr, ptr %3, align 8, !tbaa !155
  %.not.i.i = icmp eq ptr %.pre.i, null
  br i1 %.not.i.i, label %_ZN17scoped_ptr_vectorIN5array6solver8var_dataEE6resizeEj.exit, label %17

17:                                               ; preds = %._crit_edge.i
  %18 = getelementptr inbounds i8, ptr %.pre.i, i64 -4
  store i32 %.0.i.i, ptr %18, align 4, !tbaa !140
  br label %_ZN17scoped_ptr_vectorIN5array6solver8var_dataEE6resizeEj.exit

.lr.ph.i:                                         ; preds = %.lr.ph.i, %.lr.ph.preheader.i
  %indvars.iv.i = phi i64 [ %15, %.lr.ph.preheader.i ], [ %19, %.lr.ph.i ]
  %19 = add nsw i64 %indvars.iv.i, -1
  %20 = load ptr, ptr %3, align 8, !tbaa !155
  %21 = getelementptr inbounds nuw ptr, ptr %20, i64 %19
  %22 = load ptr, ptr %21, align 8, !tbaa !156
  tail call void @_Z7deallocIN5array6solver8var_dataEEvPT_(ptr noundef %22)
  %.wide.i = icmp ugt i64 %19, %16
  br i1 %.wide.i, label %.lr.ph.i, label %._crit_edge.i, !llvm.loop !170

_ZNK6vectorIPN5array6solver8var_dataELb0EjE4sizeEv.exit13.i: ; preds = %_ZNK6vectorIPN5array6solver8var_dataELb0EjE4sizeEv.exit.i, %_ZNK3euf13th_euf_solver12get_num_varsEv.exit
  %.0.i12.i = phi i32 [ 0, %_ZNK3euf13th_euf_solver12get_num_varsEv.exit ], [ %13, %_ZNK6vectorIPN5array6solver8var_dataELb0EjE4sizeEv.exit.i ]
  %23 = icmp ult i32 %.0.i12.i, %.0.i.i
  br i1 %23, label %.lr.ph17.i, label %_ZN17scoped_ptr_vectorIN5array6solver8var_dataEE6resizeEj.exit

.lr.ph17.i:                                       ; preds = %_ZNK6vectorIPN5array6solver8var_dataELb0EjE4sizeEv.exit13.i, %_ZN17scoped_ptr_vectorIN5array6solver8var_dataEE9push_backEPS2_.exit.i
  %24 = phi ptr [ %33, %_ZN17scoped_ptr_vectorIN5array6solver8var_dataEE9push_backEPS2_.exit.i ], [ %10, %_ZNK6vectorIPN5array6solver8var_dataELb0EjE4sizeEv.exit13.i ]
  %.016.i = phi i32 [ %39, %_ZN17scoped_ptr_vectorIN5array6solver8var_dataEE9push_backEPS2_.exit.i ], [ %.0.i12.i, %_ZNK6vectorIPN5array6solver8var_dataELb0EjE4sizeEv.exit13.i ]
  %25 = icmp eq ptr %24, null
  br i1 %25, label %32, label %26

26:                                               ; preds = %.lr.ph17.i
  %27 = getelementptr inbounds i8, ptr %24, i64 -4
  %28 = load i32, ptr %27, align 4, !tbaa !140
  %29 = getelementptr inbounds i8, ptr %24, i64 -8
  %30 = load i32, ptr %29, align 4, !tbaa !140
  %31 = icmp eq i32 %28, %30
  br i1 %31, label %32, label %_ZN17scoped_ptr_vectorIN5array6solver8var_dataEE9push_backEPS2_.exit.i

32:                                               ; preds = %26, %.lr.ph17.i
  tail call void @_ZN6vectorIPN5array6solver8var_dataELb0EjE13expand_vectorEv(ptr noundef nonnull align 8 dereferenceable(8) %3)
  %.pre.i.i.i = load ptr, ptr %3, align 8, !tbaa !155
  %.phi.trans.insert.i.i.i = getelementptr inbounds i8, ptr %.pre.i.i.i, i64 -4
  %.pre2.i.i.i = load i32, ptr %.phi.trans.insert.i.i.i, align 4, !tbaa !140
  br label %_ZN17scoped_ptr_vectorIN5array6solver8var_dataEE9push_backEPS2_.exit.i

_ZN17scoped_ptr_vectorIN5array6solver8var_dataEE9push_backEPS2_.exit.i: ; preds = %32, %26
  %33 = phi ptr [ %.pre.i.i.i, %32 ], [ %24, %26 ]
  %34 = phi i32 [ %.pre2.i.i.i, %32 ], [ %28, %26 ]
  %35 = getelementptr inbounds i8, ptr %33, i64 -4
  %36 = zext i32 %34 to i64
  %37 = getelementptr inbounds nuw ptr, ptr %33, i64 %36
  store ptr null, ptr %37, align 8, !tbaa !156
  %38 = add i32 %34, 1
  store i32 %38, ptr %35, align 4, !tbaa !140
  %39 = add i32 %.016.i, 1
  %exitcond.not.i = icmp eq i32 %39, %.0.i.i
  br i1 %exitcond.not.i, label %_ZN17scoped_ptr_vectorIN5array6solver8var_dataEE6resizeEj.exit, label %.lr.ph17.i, !llvm.loop !171

_ZN17scoped_ptr_vectorIN5array6solver8var_dataEE6resizeEj.exit: ; preds = %_ZN17scoped_ptr_vectorIN5array6solver8var_dataEE9push_backEPS2_.exit.i, %._crit_edge.i, %17, %_ZNK6vectorIPN5array6solver8var_dataELb0EjE4sizeEv.exit13.i
  ret void
}